; Function Attrs: mustprogress uwtable
define dso_local void @_ZNK11StatementIf16output_conditionERSoP7FactMgri(ptr noundef nonnull readonly align 8 captures(none) dereferenceable(56) %0, ptr noundef nonnull align 8 dereferenceable(8) %1, ptr noundef readnone captures(none) %2, i32 noundef %3) local_unnamed_addr #3 align 2 {
  tail call void @_Z10output_tabRSoi(ptr noundef nonnull align 8 dereferenceable(8) %1, i32 noundef %3)
  %5 = tail call noundef nonnull align 8 dereferenceable(8) ptr @_ZSt16__ostream_insertIcSt11char_traitsIcEERSt13basic_ostreamIT_T0_ES6_PKS3_l(ptr noundef nonnull align 8 dereferenceable(8) %1, ptr noundef nonnull @.str.1, i64 noundef 4)
  %6 = getelementptr inbounds nuw i8, ptr %0, i64 32
  %7 = load ptr, ptr %6, align 8, !tbaa !74
  %8 = load ptr, ptr %7, align 8, !tbaa !49
  %9 = getelementptr inbounds nuw i8, ptr %8, i64 144
  %10 = load ptr, ptr %9, align 8
  tail call void %10(ptr noundef nonnull align 8 dereferenceable(24) %7, ptr noundef nonnull align 8 dereferenceable(8) %1)
  %11 = tail call noundef nonnull align 8 dereferenceable(8) ptr @_ZSt16__ostream_insertIcSt11char_traitsIcEERSt13basic_ostreamIT_T0_ES6_PKS3_l(ptr noundef nonnull align 8 dereferenceable(8) %1, ptr noundef nonnull @.str.2, i64 noundef 1)
  tail call void @_Z8outputlnRSo(ptr noundef nonnull align 8 dereferenceable(8) %1)
  ret void
}